target datalayout = "e-m:e-p270:32:32-p271:32:32-p272:64:64-i64:64-i128:128-f80:128-n8:16:32:64-S128"
target triple = "x86_64-pc-linux-gnu"

%"class.std::__shared_count" = type { ptr }
%"class.cv::Size_" = type { i32, i32 }
%"class.cv::bioinspired::RetinaImpl" = type <{ %"class.cv::bioinspired::Retina", %"struct.cv::bioinspired::RetinaParameters", %"class.std::valarray", %"struct.cv::Ptr.4", i8, [7 x i8] }>
%"class.cv::bioinspired::Retina" = type { %"class.cv::Algorithm" }
%"class.cv::Algorithm" = type { ptr }
%"struct.cv::bioinspired::RetinaParameters" = type { %"struct.cv::bioinspired::RetinaParameters::OPLandIplParvoParameters", %"struct.cv::bioinspired::RetinaParameters::IplMagnoParameters" }
%"struct.cv::bioinspired::RetinaParameters::OPLandIplParvoParameters" = type { i8, i8, float, float, float, float, float, float, float }
%"struct.cv::bioinspired::RetinaParameters::IplMagnoParameters" = type { i8, float, float, float, float, float, float, float }
%"class.std::valarray" = type { i64, ptr }
%"struct.cv::Ptr.4" = type { %"class.std::shared_ptr.5" }
%"class.std::shared_ptr.5" = type { %"class.std::__shared_ptr.6" }
%"class.std::__shared_ptr.6" = type { ptr, %"class.std::__shared_count" }

; Function Attrs: mustprogress nounwind uwtable
define linkonce_odr hidden void @_ZNSt14__shared_countILN9__gnu_cxx12_Lock_policyE2EEC2Ev(ptr noundef nonnull align 8 dereferenceable(8) %0) unnamed_addr #9 comdat align 2 {
  %2 = alloca ptr, align 8
  store ptr %0, ptr %2, align 8, !tbaa !164
  %3 = load ptr, ptr %2, align 8
  %4 = getelementptr inbounds nuw %"class.std::__shared_count", ptr %3, i32 0, i32 0
  store ptr null, ptr %4, align 8, !tbaa !166
  ret void
}

; Function Attrs: mustprogress nounwind uwtable
define linkonce_odr hidden void @_ZNSt12__shared_ptrIN2cv11bioinspired12RetinaFilterELN9__gnu_cxx12_Lock_policyE2EEC2Ev(ptr noundef nonnull align 8 dereferenceable(16) %0) unnamed_addr #9 comdat align 2 {
  %2 = alloca ptr, align 8
  store ptr %0, ptr %2, align 8, !tbaa !281
  %3 = load ptr, ptr %2, align 8
  %4 = getelementptr inbounds nuw %"class.std::__shared_ptr.6", ptr %3, i32 0, i32 0
  store ptr null, ptr %4, align 8, !tbaa !283
  %5 = getelementptr inbounds nuw %"class.std::__shared_ptr.6", ptr %3, i32 0, i32 1
  call void @_ZNSt14__shared_countILN9__gnu_cxx12_Lock_policyE2EEC2Ev(ptr noundef nonnull align 8 dereferenceable(8) %5) #3
  ret void
}

; Function Attrs: noinline noreturn nounwind uwtable
define linkonce_odr hidden void @__clang_call_terminate(ptr noundef %0) #12 comdat {
  %2 = call ptr @__cxa_begin_catch(ptr %0) #3
  call void @_ZSt9terminatev() #26
  unreachable
}

; Function Attrs: inlinehint mustprogress nounwind uwtable
define linkonce_odr void @_ZSt25__valarray_release_memoryPv(ptr noundef %0) #7 comdat {
  %2 = alloca ptr, align 8
  store ptr %0, ptr %2, align 8, !tbaa !209
  %3 = load ptr, ptr %2, align 8, !tbaa !209
  call void @_ZdlPv(ptr noundef %3) #3
  ret void
}

; Function Attrs: inlinehint mustprogress nounwind uwtable
define linkonce_odr void @_ZSt27__valarray_destroy_elementsIfEvPT_S1_(ptr noundef %0, ptr noundef %1) #7 comdat {
  %3 = alloca ptr, align 8
  %4 = alloca ptr, align 8
  store ptr %0, ptr %3, align 8, !tbaa !22
  store ptr %1, ptr %4, align 8, !tbaa !22
  ret void
}

; Function Attrs: mustprogress nounwind uwtable
define linkonce_odr hidden void @_ZNSt10shared_ptrIN2cv11bioinspired12RetinaFilterEEC2Ev(ptr noundef nonnull align 8 dereferenceable(16) %0) unnamed_addr #9 comdat align 2 {
  %2 = alloca ptr, align 8
  store ptr %0, ptr %2, align 8, !tbaa !279
  %3 = load ptr, ptr %2, align 8
  call void @_ZNSt12__shared_ptrIN2cv11bioinspired12RetinaFilterELN9__gnu_cxx12_Lock_policyE2EEC2Ev(ptr noundef nonnull align 8 dereferenceable(16) %3) #3
  ret void
}

; Function Attrs: mustprogress nounwind uwtable
define linkonce_odr hidden void @_ZN2cv11bioinspired16RetinaParameters18IplMagnoParametersC2Ev(ptr noundef nonnull align 4 dereferenceable(32) %0) unnamed_addr #9 comdat align 2 {
  %2 = alloca ptr, align 8
  store ptr %0, ptr %2, align 8, !tbaa !186
  %3 = load ptr, ptr %2, align 8
  %4 = getelementptr inbounds nuw %"struct.cv::bioinspired::RetinaParameters::IplMagnoParameters", ptr %3, i32 0, i32 0
  store i8 1, ptr %4, align 4, !tbaa !188
  %5 = getelementptr inbounds nuw %"struct.cv::bioinspired::RetinaParameters::IplMagnoParameters", ptr %3, i32 0, i32 1
  store float 0.000000e+00, ptr %5, align 4, !tbaa !189
  %6 = getelementptr inbounds nuw %"struct.cv::bioinspired::RetinaParameters::IplMagnoParameters", ptr %3, i32 0, i32 2
  store float 0.000000e+00, ptr %6, align 4, !tbaa !190
  %7 = getelementptr inbounds nuw %"struct.cv::bioinspired::RetinaParameters::IplMagnoParameters", ptr %3, i32 0, i32 3
  store float 7.000000e+00, ptr %7, align 4, !tbaa !191
  %8 = getelementptr inbounds nuw %"struct.cv::bioinspired::RetinaParameters::IplMagnoParameters", ptr %3, i32 0, i32 4
  store float 2.000000e+00, ptr %8, align 4, !tbaa !192
  %9 = getelementptr inbounds nuw %"struct.cv::bioinspired::RetinaParameters::IplMagnoParameters", ptr %3, i32 0, i32 5
  store float 0x3FEE666660000000, ptr %9, align 4, !tbaa !193
  %10 = getelementptr inbounds nuw %"struct.cv::bioinspired::RetinaParameters::IplMagnoParameters", ptr %3, i32 0, i32 6
  store float 0.000000e+00, ptr %10, align 4, !tbaa !194
  %11 = getelementptr inbounds nuw %"struct.cv::bioinspired::RetinaParameters::IplMagnoParameters", ptr %3, i32 0, i32 7
  store float 7.000000e+00, ptr %11, align 4, !tbaa !195
  ret void
}

; Function Attrs: mustprogress nounwind uwtable
define linkonce_odr hidden void @_ZN2cv11bioinspired16RetinaParameters24OPLandIplParvoParametersC2Ev(ptr noundef nonnull align 4 dereferenceable(32) %0) unnamed_addr #9 comdat align 2 {
  %2 = alloca ptr, align 8
  store ptr %0, ptr %2, align 8, !tbaa !175
  %3 = load ptr, ptr %2, align 8
  %4 = getelementptr inbounds nuw %"struct.cv::bioinspired::RetinaParameters::OPLandIplParvoParameters", ptr %3, i32 0, i32 0
  store i8 1, ptr %4, align 4, !tbaa !177
  %5 = getelementptr inbounds nuw %"struct.cv::bioinspired::RetinaParameters::OPLandIplParvoParameters", ptr %3, i32 0, i32 1
  store i8 1, ptr %5, align 1, !tbaa !178
  %6 = getelementptr inbounds nuw %"struct.cv::bioinspired::RetinaParameters::OPLandIplParvoParameters", ptr %3, i32 0, i32 2
  store float 7.500000e-01, ptr %6, align 4, !tbaa !179
  %7 = getelementptr inbounds nuw %"struct.cv::bioinspired::RetinaParameters::OPLandIplParvoParameters", ptr %3, i32 0, i32 3
  store float 0x3FECCCCCC0000000, ptr %7, align 4, !tbaa !180
  %8 = getelementptr inbounds nuw %"struct.cv::bioinspired::RetinaParameters::OPLandIplParvoParameters", ptr %3, i32 0, i32 4
  store float 0x3FE0F5C280000000, ptr %8, align 4, !tbaa !181
  %9 = getelementptr inbounds nuw %"struct.cv::bioinspired::RetinaParameters::OPLandIplParvoParameters", ptr %3, i32 0, i32 5
  store float 0x3F847AE140000000, ptr %9, align 4, !tbaa !182
  %10 = getelementptr inbounds nuw %"struct.cv::bioinspired::RetinaParameters::OPLandIplParvoParameters", ptr %3, i32 0, i32 6
  store float 5.000000e-01, ptr %10, align 4, !tbaa !183
  %11 = getelementptr inbounds nuw %"struct.cv::bioinspired::RetinaParameters::OPLandIplParvoParameters", ptr %3, i32 0, i32 7
  store float 7.000000e+00, ptr %11, align 4, !tbaa !184
  %12 = getelementptr inbounds nuw %"struct.cv::bioinspired::RetinaParameters::OPLandIplParvoParameters", ptr %3, i32 0, i32 8
  store float 7.500000e-01, ptr %12, align 4, !tbaa !185
  ret void
}

; Function Attrs: inlinehint mustprogress nounwind uwtable
define linkonce_odr hidden void @_ZNSt8valarrayIfED2Ev(ptr noundef nonnull align 8 dereferenceable(16) %0) unnamed_addr #7 comdat align 2 personality ptr @__gxx_personality_v0 {
  %2 = alloca ptr, align 8
  store ptr %0, ptr %2, align 8, !tbaa !33
  %3 = load ptr, ptr %2, align 8
  %4 = getelementptr inbounds nuw %"class.std::valarray", ptr %3, i32 0, i32 1
  %5 = load ptr, ptr %4, align 8, !tbaa !38
  %6 = getelementptr inbounds nuw %"class.std::valarray", ptr %3, i32 0, i32 1
  %7 = load ptr, ptr %6, align 8, !tbaa !38
  %8 = getelementptr inbounds nuw %"class.std::valarray", ptr %3, i32 0, i32 0
  %9 = load i64, ptr %8, align 8, !tbaa !35
  %10 = getelementptr inbounds nuw float, ptr %7, i64 %9
  invoke void @_ZSt27__valarray_destroy_elementsIfEvPT_S1_(ptr noundef %5, ptr noundef %10)
          to label %11 unwind label %15

11:                                               ; preds = %1
  %12 = getelementptr inbounds nuw %"class.std::valarray", ptr %3, i32 0, i32 1
  %13 = load ptr, ptr %12, align 8, !tbaa !38
  invoke void @_ZSt25__valarray_release_memoryPv(ptr noundef %13)
          to label %14 unwind label %15

14:                                               ; preds = %11
  ret void

15:                                               ; preds = %11, %1
  %16 = landingpad { ptr, i32 }
          catch ptr null
  %17 = extractvalue { ptr, i32 } %16, 0
  call void @__clang_call_terminate(ptr %17) #26
  unreachable
}

; Function Attrs: inlinehint mustprogress nounwind uwtable
define linkonce_odr hidden void @_ZN2cv3PtrINS_11bioinspired12RetinaFilterEEC2Ev(ptr noundef nonnull align 8 dereferenceable(16) %0) unnamed_addr #7 comdat align 2 {
  %2 = alloca ptr, align 8
  store ptr %0, ptr %2, align 8, !tbaa !39
  %3 = load ptr, ptr %2, align 8
  call void @_ZNSt10shared_ptrIN2cv11bioinspired12RetinaFilterEEC2Ev(ptr noundef nonnull align 8 dereferenceable(16) %3) #3
  ret void
}

; Function Attrs: inlinehint mustprogress nounwind uwtable
define linkonce_odr hidden void @_ZNSt8valarrayIfEC2Ev(ptr noundef nonnull align 8 dereferenceable(16) %0) unnamed_addr #7 comdat align 2 {
  %2 = alloca ptr, align 8
  store ptr %0, ptr %2, align 8, !tbaa !33
  %3 = load ptr, ptr %2, align 8
  %4 = getelementptr inbounds nuw %"class.std::valarray", ptr %3, i32 0, i32 0
  store i64 0, ptr %4, align 8, !tbaa !35
  %5 = getelementptr inbounds nuw %"class.std::valarray", ptr %3, i32 0, i32 1
  store ptr null, ptr %5, align 8, !tbaa !38
  ret void
}

; Function Attrs: inlinehint mustprogress uwtable
define linkonce_odr hidden void @_ZN2cv11bioinspired16RetinaParametersC2Ev(ptr noundef nonnull align 4 dereferenceable(64) %0) unnamed_addr #6 comdat align 2 {
  %2 = alloca ptr, align 8
  store ptr %0, ptr %2, align 8, !tbaa !31
  %3 = load ptr, ptr %2, align 8
  %4 = getelementptr inbounds nuw %"struct.cv::bioinspired::RetinaParameters", ptr %3, i32 0, i32 0
  call void @_ZN2cv11bioinspired16RetinaParameters24OPLandIplParvoParametersC2Ev(ptr noundef nonnull align 4 dereferenceable(32) %4)
  %5 = getelementptr inbounds nuw %"struct.cv::bioinspired::RetinaParameters", ptr %3, i32 0, i32 1
  call void @_ZN2cv11bioinspired16RetinaParameters18IplMagnoParametersC2Ev(ptr noundef nonnull align 4 dereferenceable(32) %5)
  ret void
}

; Function Attrs: inlinehint mustprogress uwtable
define linkonce_odr hidden void @_ZN2cv11bioinspired6RetinaC2Ev(ptr noundef nonnull align 8 dereferenceable(8) %0) unnamed_addr #6 comdat align 2 {
  %2 = alloca ptr, align 8
  store ptr %0, ptr %2, align 8, !tbaa !29
  %3 = load ptr, ptr %2, align 8
  call void @_ZN2cv9AlgorithmC2Ev(ptr noundef nonnull align 8 dereferenceable(8) %3)
  store ptr getelementptr inbounds inrange(-16, 240) ({ [32 x ptr] }, ptr @_ZTVN2cv11bioinspired6RetinaE, i32 0, i32 0, i32 2), ptr %3, align 8, !tbaa !26
  ret void
}

; Function Attrs: mustprogress uwtable
define hidden void @_ZN2cv11bioinspired10RetinaImplC2ENS_5Size_IiEEbibff(ptr noundef nonnull align 8 dereferenceable(112) %0, i64 %1, i1 noundef zeroext %2, i32 noundef %3, i1 noundef zeroext %4, float noundef %5, float noundef %6) unnamed_addr #4 align 2 personality ptr @__gxx_personality_v0 {
  %8 = alloca %"class.cv::Size_", align 4
  %9 = alloca ptr, align 8
  %10 = alloca i8, align 1
  %11 = alloca i32, align 4
  %12 = alloca i8, align 1
  %13 = alloca float, align 4
  %14 = alloca float, align 4
  %15 = alloca ptr, align 8
  %16 = alloca i32, align 4
  %17 = alloca %"class.cv::Size_", align 4
  store i64 %1, ptr %8, align 4
  store ptr %0, ptr %9, align 8, !tbaa !24
  %18 = zext i1 %2 to i8
  store i8 %18, ptr %10, align 1, !tbaa !12
  store i32 %3, ptr %11, align 4, !tbaa !14
  %19 = zext i1 %4 to i8
  store i8 %19, ptr %12, align 1, !tbaa !12
  store float %5, ptr %13, align 4, !tbaa !16
  store float %6, ptr %14, align 4, !tbaa !16
  %20 = load ptr, ptr %9, align 8
  call void @_ZN2cv11bioinspired6RetinaC2Ev(ptr noundef nonnull align 8 dereferenceable(8) %20)
  store ptr getelementptr inbounds inrange(-16, 240) ({ [32 x ptr] }, ptr @_ZTVN2cv11bioinspired10RetinaImplE, i32 0, i32 0, i32 2), ptr %20, align 8, !tbaa !26
  %21 = getelementptr inbounds nuw %"class.cv::bioinspired::RetinaImpl", ptr %20, i32 0, i32 1
  invoke void @_ZN2cv11bioinspired16RetinaParametersC2Ev(ptr noundef nonnull align 4 dereferenceable(64) %21)
          to label %22 unwind label %34

22:                                               ; preds = %7
  %23 = getelementptr inbounds nuw %"class.cv::bioinspired::RetinaImpl", ptr %20, i32 0, i32 2
  call void @_ZNSt8valarrayIfEC2Ev(ptr noundef nonnull align 8 dereferenceable(16) %23) #3
  %24 = getelementptr inbounds nuw %"class.cv::bioinspired::RetinaImpl", ptr %20, i32 0, i32 3
  call void @_ZN2cv3PtrINS_11bioinspired12RetinaFilterEEC2Ev(ptr noundef nonnull align 8 dereferenceable(16) %24) #3
  call void @llvm.memcpy.p0.p0.i64(ptr align 4 %17, ptr align 4 %8, i64 8, i1 false), !tbaa.struct !28
  %25 = load i8, ptr %10, align 1, !tbaa !12, !range !57, !noundef !58
  %26 = trunc i8 %25 to i1
  %27 = load i32, ptr %11, align 4, !tbaa !14
  %28 = load i8, ptr %12, align 1, !tbaa !12, !range !57, !noundef !58
  %29 = trunc i8 %28 to i1
  %30 = load float, ptr %13, align 4, !tbaa !16
  %31 = load float, ptr %14, align 4, !tbaa !16
  %32 = load i64, ptr %17, align 4
  invoke void @_ZN2cv11bioinspired10RetinaImpl5_initENS_5Size_IiEEbibff(ptr noundef nonnull align 8 dereferenceable(112) %20, i64 %32, i1 noundef zeroext %26, i32 noundef %27, i1 noundef zeroext %29, float noundef %30, float noundef %31)
          to label %33 unwind label %38

33:                                               ; preds = %22
  ret void

34:                                               ; preds = %7
  %35 = landingpad { ptr, i32 }
          cleanup
  %36 = extractvalue { ptr, i32 } %35, 0
  store ptr %36, ptr %15, align 8
  %37 = extractvalue { ptr, i32 } %35, 1
  store i32 %37, ptr %16, align 4
  br label %42

38:                                               ; preds = %22
  %39 = landingpad { ptr, i32 }
          cleanup
  %40 = extractvalue { ptr, i32 } %39, 0
  store ptr %40, ptr %15, align 8
  %41 = extractvalue { ptr, i32 } %39, 1
  store i32 %41, ptr %16, align 4
  call void @_ZNSt12__shared_ptrIN2cv11bioinspired12RetinaFilterELN9__gnu_cxx12_Lock_policyE2EED2Ev(ptr noundef nonnull align 8 dereferenceable(16) %24) #3
  call void @_ZNSt8valarrayIfED2Ev(ptr noundef nonnull align 8 dereferenceable(16) %23) #3
  br label %42

42:                                               ; preds = %38, %34
  call void @_ZN2cv9AlgorithmD2Ev(ptr noundef nonnull align 8 dereferenceable(8) %20) #3
  br label %43

43:                                               ; preds = %42
  %44 = load ptr, ptr %15, align 8
  %45 = load i32, ptr %16, align 4
  %46 = insertvalue { ptr, i32 } poison, ptr %44, 0
  %47 = insertvalue { ptr, i32 } %46, i32 %45, 1
  resume { ptr, i32 } %47
}