; Function Attrs: mustprogress uwtable
define hidden void @_ZN2cv11bioinspired10RetinaImplC2ENS_5Size_IiEEbibff(ptr noundef nonnull align 8 dereferenceable(112) %0, i64 %1, i1 noundef zeroext %2, i32 noundef %3, i1 noundef zeroext %4, float noundef %5, float noundef %6) unnamed_addr #3 align 2 personality ptr @__gxx_personality_v0 {
  tail call void @_ZN2cv9AlgorithmC2Ev(ptr noundef nonnull align 8 dereferenceable(8) %0)
  store ptr getelementptr inbounds nuw inrange(-16, 240) (i8, ptr @_ZTVN2cv11bioinspired10RetinaImplE, i64 16), ptr %0, align 8, !tbaa !14
  %8 = getelementptr inbounds nuw i8, ptr %0, i64 8
  store i8 1, ptr %8, align 8, !tbaa !28
  %9 = getelementptr inbounds nuw i8, ptr %0, i64 9
  store i8 1, ptr %9, align 1, !tbaa !32
  %10 = getelementptr inbounds nuw i8, ptr %0, i64 12
  store float 7.500000e-01, ptr %10, align 4, !tbaa !33
  %11 = getelementptr inbounds nuw i8, ptr %0, i64 16
  store float 0x3FECCCCCC0000000, ptr %11, align 8, !tbaa !34
  %12 = getelementptr inbounds nuw i8, ptr %0, i64 20
  store float 0x3FE0F5C280000000, ptr %12, align 4, !tbaa !35
  %13 = getelementptr inbounds nuw i8, ptr %0, i64 24
  store float 0x3F847AE140000000, ptr %13, align 8, !tbaa !36
  %14 = getelementptr inbounds nuw i8, ptr %0, i64 28
  store float 5.000000e-01, ptr %14, align 4, !tbaa !37
  %15 = getelementptr inbounds nuw i8, ptr %0, i64 32
  store float 7.000000e+00, ptr %15, align 8, !tbaa !38
  %16 = getelementptr inbounds nuw i8, ptr %0, i64 36
  store float 7.500000e-01, ptr %16, align 4, !tbaa !39
  %17 = getelementptr inbounds nuw i8, ptr %0, i64 40
  store i8 1, ptr %17, align 8, !tbaa !40
  %18 = getelementptr inbounds nuw i8, ptr %0, i64 44
  store float 0.000000e+00, ptr %18, align 4, !tbaa !42
  %19 = getelementptr inbounds nuw i8, ptr %0, i64 48
  store float 0.000000e+00, ptr %19, align 8, !tbaa !43
  %20 = getelementptr inbounds nuw i8, ptr %0, i64 52
  store float 7.000000e+00, ptr %20, align 4, !tbaa !44
  %21 = getelementptr inbounds nuw i8, ptr %0, i64 56
  store float 2.000000e+00, ptr %21, align 8, !tbaa !45
  %22 = getelementptr inbounds nuw i8, ptr %0, i64 60
  store float 0x3FEE666660000000, ptr %22, align 4, !tbaa !46
  %23 = getelementptr inbounds nuw i8, ptr %0, i64 64
  store float 0.000000e+00, ptr %23, align 8, !tbaa !47
  %24 = getelementptr inbounds nuw i8, ptr %0, i64 68
  store float 7.000000e+00, ptr %24, align 4, !tbaa !48
  %25 = getelementptr inbounds nuw i8, ptr %0, i64 72
  tail call void @llvm.memset.p0.i64(ptr noundef nonnull align 8 dereferenceable(32) %25, i8 0, i64 32, i1 false)
  invoke void @_ZN2cv11bioinspired10RetinaImpl5_initENS_5Size_IiEEbibff(ptr noundef nonnull align 8 dereferenceable(112) %0, i64 %1, i1 noundef zeroext %2, i32 noundef %3, i1 noundef zeroext %4, float noundef %5, float noundef %6)
          to label %26 unwind label %27

26:                                               ; preds = %7
  ret void

27:                                               ; preds = %7
  %28 = landingpad { ptr, i32 }
          cleanup
  %29 = getelementptr inbounds nuw i8, ptr %0, i64 88
  tail call void @_ZNSt12__shared_ptrIN2cv11bioinspired12RetinaFilterELN9__gnu_cxx12_Lock_policyE2EED2Ev(ptr noundef nonnull align 8 dereferenceable(16) %29) #29
  %30 = getelementptr inbounds nuw i8, ptr %0, i64 80
  %31 = load ptr, ptr %30, align 8, !tbaa !49
  tail call void @_ZdlPv(ptr noundef %31) #29
  tail call void @_ZN2cv9AlgorithmD2Ev(ptr noundef nonnull align 8 dereferenceable(8) %0) #29
  resume { ptr, i32 } %28
}